(dp0
S'info'
p1
I0
sS'function'
p2
I0
sS'error'
p3
I0
sS'statement'
p4
I4
sS'by_msg'
p5
(dp6
S'anomalous-backslash-in-string'
p7
I4
ssS'refactor'
p8
I0
sS'method'
p9
I0
sS'cycles'
p10
(lp11
sS'warning'
p12
I4
sS'module'
p13
I0
sS'dependencies'
p14
(dp15
S'pylint.epylint'
p16
c__builtin__
set
p17
((lp18
S'lint'
p19
atp20
Rp21
ssS'convention'
p22
I0
sS'fatal'
p23
I0
sS'class'
p24
I0
sS'by_module'
p25
(dp26
g19
(dp27
g1
I0
sg22
I0
sg8
I0
sg12
I4
sg4
I0
sg3
I0
sg23
I0
sss.